target datalayout = "e-m:e-p270:32:32-p271:32:32-p272:64:64-i64:64-i128:128-f80:128-n8:16:32:64-S128"
target triple = "x86_64-pc-linux-gnu"

%"class.llvm::FastMathFlags" = type { i32 }

; Function Attrs: mustprogress nounwind uwtable
define linkonce_odr hidden void @_ZN4llvm13FastMathFlagsC2Ev(ptr noundef nonnull align 4 dereferenceable(4) %0) unnamed_addr #1 comdat align 2 {
  %2 = alloca ptr, align 8
  store ptr %0, ptr %2, align 8
  %3 = load ptr, ptr %2, align 8
  %4 = getelementptr inbounds nuw %"class.llvm::FastMathFlags", ptr %3, i32 0, i32 0
  store i32 0, ptr %4, align 4
  ret void
}

; Function Attrs: mustprogress nounwind uwtable
define linkonce_odr hidden noundef zeroext i1 @_ZN4llvm7CmpInst14isIntPredicateENS0_9PredicateE(i32 noundef %0) #1 comdat align 2 {
  %2 = alloca i32, align 4
  store i32 %0, ptr %2, align 4
  %3 = load i32, ptr %2, align 4
  %4 = icmp uge i32 %3, 32
  br i1 %4, label %5, label %8

5:                                                ; preds = %1
  %6 = load i32, ptr %2, align 4
  %7 = icmp ule i32 %6, 41
  br label %8

8:                                                ; preds = %5, %1
  %9 = phi i1 [ false, %1 ], [ %7, %5 ]
  ret i1 %9
}

; Function Attrs: mustprogress nounwind uwtable
define internal noundef ptr @_ZL15simplifyCmpInstjPN4llvm5ValueES1_RKNS_13SimplifyQueryEj(i32 noundef %0, ptr noundef %1, ptr noundef %2, ptr noundef nonnull align 8 dereferenceable(58) %3, i32 noundef %4) #1 {
  %6 = alloca ptr, align 8
  %7 = alloca i32, align 4
  %8 = alloca ptr, align 8
  %9 = alloca ptr, align 8
  %10 = alloca ptr, align 8
  %11 = alloca i32, align 4
  %12 = alloca %"class.llvm::FastMathFlags", align 4
  store i32 %0, ptr %7, align 4
  store ptr %1, ptr %8, align 8
  store ptr %2, ptr %9, align 8
  store ptr %3, ptr %10, align 8
  store i32 %4, ptr %11, align 4
  %13 = load i32, ptr %7, align 4
  %14 = call noundef zeroext i1 @_ZN4llvm7CmpInst14isIntPredicateENS0_9PredicateE(i32 noundef %13)
  br i1 %14, label %15, label %22

15:                                               ; preds = %5
  %16 = load i32, ptr %7, align 4
  %17 = load ptr, ptr %8, align 8
  %18 = load ptr, ptr %9, align 8
  %19 = load ptr, ptr %10, align 8
  %20 = load i32, ptr %11, align 4
  %21 = call noundef ptr @_ZL16simplifyICmpInstjPN4llvm5ValueES1_RKNS_13SimplifyQueryEj(i32 noundef %16, ptr noundef %17, ptr noundef %18, ptr noundef nonnull align 8 dereferenceable(58) %19, i32 noundef %20)
  store ptr %21, ptr %6, align 8
  br label %31

22:                                               ; preds = %5
  %23 = load i32, ptr %7, align 4
  %24 = load ptr, ptr %8, align 8
  %25 = load ptr, ptr %9, align 8
  call void @llvm.memset.p0.i64(ptr align 4 %12, i8 0, i64 4, i1 false)
  call void @_ZN4llvm13FastMathFlagsC2Ev(ptr noundef nonnull align 4 dereferenceable(4) %12) #13
  %26 = load ptr, ptr %10, align 8
  %27 = load i32, ptr %11, align 4
  %28 = getelementptr inbounds nuw %"class.llvm::FastMathFlags", ptr %12, i32 0, i32 0
  %29 = load i32, ptr %28, align 4
  %30 = call noundef ptr @_ZL16simplifyFCmpInstjPN4llvm5ValueES1_NS_13FastMathFlagsERKNS_13SimplifyQueryEj(i32 noundef %23, ptr noundef %24, ptr noundef %25, i32 %29, ptr noundef nonnull align 8 dereferenceable(58) %26, i32 noundef %27)
  store ptr %30, ptr %6, align 8
  br label %31

31:                                               ; preds = %22, %15
  %32 = load ptr, ptr %6, align 8
  ret ptr %32
}

; Function Attrs: mustprogress nounwind uwtable
define dso_local noundef ptr @_ZN4llvm15simplifyCmpInstEjPNS_5ValueES1_RKNS_13SimplifyQueryE(i32 noundef %0, ptr noundef %1, ptr noundef %2, ptr noundef nonnull align 8 dereferenceable(58) %3) #1 {
  %5 = alloca i32, align 4
  %6 = alloca ptr, align 8
  %7 = alloca ptr, align 8
  %8 = alloca ptr, align 8
  store i32 %0, ptr %5, align 4
  store ptr %1, ptr %6, align 8
  store ptr %2, ptr %7, align 8
  store ptr %3, ptr %8, align 8
  %9 = load i32, ptr %5, align 4
  %10 = load ptr, ptr %6, align 8
  %11 = load ptr, ptr %7, align 8
  %12 = load ptr, ptr %8, align 8
  %13 = call noundef ptr @_ZL15simplifyCmpInstjPN4llvm5ValueES1_RKNS_13SimplifyQueryEj(i32 noundef %9, ptr noundef %10, ptr noundef %11, ptr noundef nonnull align 8 dereferenceable(58) %12, i32 noundef 3)
  ret ptr %13
}