; Function Attrs: mustprogress nounwind uwtable
define dso_local noundef ptr @_ZN4llvm15simplifyCmpInstEjPNS_5ValueES1_RKNS_13SimplifyQueryE(i32 noundef %0, ptr noundef %1, ptr noundef %2, ptr noundef nonnull align 8 dereferenceable(58) %3) local_unnamed_addr #0 {
  %5 = add i32 %0, -32
  %6 = icmp ult i32 %5, 10
  br i1 %6, label %7, label %9

7:                                                ; preds = %4
  %8 = tail call fastcc noundef ptr @_ZL16simplifyICmpInstjPN4llvm5ValueES1_RKNS_13SimplifyQueryEj(i32 noundef %0, ptr noundef %1, ptr noundef %2, ptr noundef nonnull align 8 dereferenceable(58) %3, i32 noundef 3)
  br label %_ZL15simplifyCmpInstjPN4llvm5ValueES1_RKNS_13SimplifyQueryEj.exit

9:                                                ; preds = %4
  %10 = tail call fastcc noundef ptr @_ZL16simplifyFCmpInstjPN4llvm5ValueES1_NS_13FastMathFlagsERKNS_13SimplifyQueryEj(i32 noundef %0, ptr noundef %1, ptr noundef %2, i32 0, ptr noundef nonnull align 8 dereferenceable(58) %3, i32 noundef 3)
  br label %_ZL15simplifyCmpInstjPN4llvm5ValueES1_RKNS_13SimplifyQueryEj.exit

_ZL15simplifyCmpInstjPN4llvm5ValueES1_RKNS_13SimplifyQueryEj.exit: ; preds = %7, %9
  %.0.i = phi ptr [ %8, %7 ], [ %10, %9 ]
  ret ptr %.0.i
}